Certificate:
    Data:
        Version: 3 (0x2)
        Serial Number: 3 (0x3)
        Signature Algorithm: sha1WithRSAEncryption
        Issuer: C=US, ST=Washington, L=Olympia, O=Patrick Townsend Security Solutions, OU=Townsend Certificate Authority, CN=TCA/emailAddress=ca@patownsend.com
        Validity
            Not Before: Oct  5 18:11:33 2009 GMT
            Not After : Feb 20 18:11:33 2037 GMT
        Subject: C=US, ST=Washington, L=Olympia, O=Patrick Townsend Security Solutions, OU=Client Group, CN=Client/emailAddress=client@patownsend.com
        Subject Public Key Info:
            Public Key Algorithm: rsaEncryption
            RSA Public Key: (2048 bit)
                Modulus (2048 bit):
                    00:a6:51:6a:cd:40:de:ff:25:95:c7:9a:70:d4:c8:
                    f3:4b:6e:2c:e4:8b:1e:e5:55:69:d5:84:00:54:a4:
                    2a:d5:6a:67:60:3f:ba:ff:13:ea:50:95:0d:fb:f4:
                    f1:63:eb:04:cd:1a:fe:19:6f:ee:81:8e:32:22:39:
                    f0:86:c7:56:4f:f2:da:49:b1:2e:6f:bd:6a:94:69:
                    04:26:31:c9:57:a4:aa:2e:4f:59:2f:bd:c5:a0:38:
                    ef:7b:7a:f2:9c:59:12:e3:a5:32:43:64:ce:ed:2b:
                    4a:94:47:91:48:eb:ab:cc:c5:0b:15:f4:de:f4:84:
                    21:c1:b5:64:86:f6:8f:30:1d:1c:11:1a:2a:c8:97:
                    e7:e0:a1:ea:82:ba:0b:7f:ba:c5:3f:6e:85:54:29:
                    9c:2a:d0:56:19:62:28:82:0d:1a:4d:3c:ed:ab:9c:
                    a5:05:7f:90:a1:99:bf:5c:f8:56:c0:7a:64:ba:ee:
                    6e:09:fd:76:a9:43:66:65:4c:49:2c:ed:d8:1e:df:
                    37:36:bd:cd:f2:30:5d:26:ae:2b:e8:cf:bf:99:3b:
                    91:3d:2f:ef:d7:c3:fa:3d:99:69:c8:9a:7b:2e:32:
                    8e:99:8a:49:a1:92:49:58:c3:d5:1b:7f:3f:97:62:
                    5a:b7:93:eb:e2:4b:10:66:2f:2b:45:94:65:f2:e0:
                    42:fb
                Exponent: 65537 (0x10001)
        X509v3 extensions:
            X509v3 Basic Constraints: 
                CA:FALSE
            Netscape Comment: 
                OpenSSL Generated Certificate
            X509v3 Subject Key Identifier: 
                CE:B6:2A:42:F1:B1:61:AC:82:8E:1E:BF:10:30:CF:D2:4E:39:BB:2C
            X509v3 Authority Key Identifier: 
                keyid:85:36:5A:2F:41:DD:A6:88:2D:E8:92:D0:9C:F7:C9:D3:77:DF:16:01

    Signature Algorithm: sha1WithRSAEncryption
        8c:e0:5c:27:ca:55:39:0d:a1:b8:5b:ea:f8:6a:dd:cf:ef:06:
        21:66:8c:59:14:08:4d:f4:f1:3b:98:13:66:c5:cf:ae:74:07:
        3d:89:d9:f2:02:70:18:f1:75:09:38:9b:f0:35:6f:e5:1d:6e:
        30:01:ac:14:15:3b:45:46:dd:db:77:b7:01:35:c2:6c:b4:db:
        04:67:1c:9c:7c:00:d7:e6:eb:b0:ab:8d:a3:96:87:06:dc:4c:
        a4:6f:dc:4b:ba:9d:70:8b:1c:84:e9:6b:5b:d6:60:24:7d:b9:
        ad:59:be:e2:1b:fe:c5:46:8d:8a:dd:44:94:20:7b:ef:59:86:
        0a:84:5a:3f:35:9e:d9:66:7a:f3:6e:e8:54:4e:f5:13:02:3c:
        2b:4e:83:d7:15:f4:f5:43:cb:d6:bf:75:a7:37:fd:9e:cb:a6:
        35:04:2e:2e:2d:28:09:e9:a9:5f:09:9e:f0:38:c6:1a:86:78:
        fa:a8:18:14:b7:d4:58:87:8a:fb:71:d8:b2:71:08:cf:8e:9d:
        f1:4d:2d:1a:98:81:24:fa:e8:37:1c:70:c8:a2:80:dd:bd:ba:
        3f:c4:50:7a:da:8d:30:df:bd:47:a6:55:ea:3e:63:9e:bd:25:
        e5:37:d0:7d:9b:e9:36:60:7f:20:f2:df:74:f6:c9:2d:72:3c:
        a2:c6:b6:e7
-----BEGIN CERTIFICATE-----
MIIEYzCCA0ugAwIBAgIBAzANBgkqhkiG9w0BAQUFADCBuzELMAkGA1UEBhMCVVMx
EzARBgNVBAgTCldhc2hpbmd0b24xEDAOBgNVBAcTB09seW1waWExLDAqBgNVBAoT
I1BhdHJpY2sgVG93bnNlbmQgU2VjdXJpdHkgU29sdXRpb25zMScwJQYDVQQLEx5U
b3duc2VuZCBDZXJ0aWZpY2F0ZSBBdXRob3JpdHkxDDAKBgNVBAMTA1RDQTEgMB4G
CSqGSIb3DQEJARYRY2FAcGF0b3duc2VuZC5jb20wHhcNMDkxMDA1MTgxMTMzWhcN
MzcwMjIwMTgxMTMzWjCBsDELMAkGA1UEBhMCVVMxEzARBgNVBAgTCldhc2hpbmd0
b24xEDAOBgNVBAcTB09seW1waWExLDAqBgNVBAoTI1BhdHJpY2sgVG93bnNlbmQg
U2VjdXJpdHkgU29sdXRpb25zMRUwEwYDVQQLEwxDbGllbnQgR3JvdXAxDzANBgNV
BAMTBkNsaWVudDEkMCIGCSqGSIb3DQEJARYVY2xpZW50QHBhdG93bnNlbmQuY29t
MIIBIjANBgkqhkiG9w0BAQEFAAOCAQ8AMIIBCgKCAQEAplFqzUDe/yWVx5pw1Mjz
S24s5Ise5VVp1YQAVKQq1WpnYD+6/xPqUJUN+/TxY+sEzRr+GW/ugY4yIjnwhsdW
T/LaSbEub71qlGkEJjHJV6SqLk9ZL73FoDjve3rynFkS46UyQ2TO7StKlEeRSOur
zMULFfTe9IQhwbVkhvaPMB0cERoqyJfn4KHqgroLf7rFP26FVCmcKtBWGWIogg0a
TTztq5ylBX+QoZm/XPhWwHpkuu5uCf12qUNmZUxJLO3YHt83Nr3N8jBdJq4r6M+/
mTuRPS/v18P6PZlpyJp7LjKOmYpJoZJJWMPVG38/l2Jat5Pr4ksQZi8rRZRl8uBC
+wIDAQABo3sweTAJBgNVHRMEAjAAMCwGCWCGSAGG+EIBDQQfFh1PcGVuU1NMIEdl
bmVyYXRlZCBDZXJ0aWZpY2F0ZTAdBgNVHQ4EFgQUzrYqQvGxYayCjh6/EDDP0k45
uywwHwYDVR0jBBgwFoAUhTZaL0Hdpogt6JLQnPfJ03ffFgEwDQYJKoZIhvcNAQEF
BQADggEBAIzgXCfKVTkNobhb6vhq3c/vBiFmjFkUCE308TuYE2bFz650Bz2J2fIC
cBjxdQk4m/A1b+UdbjABrBQVO0VG3dt3twE1wmy02wRnHJx8ANfm67CrjaOWhwbc
TKRv3Eu6nXCLHITpa1vWYCR9ua1ZvuIb/sVGjYrdRJQge+9ZhgqEWj81ntlmevNu
6FRO9RMCPCtOg9cV9PVDy9a/dac3/Z7LpjUELi4tKAnpqV8JnvA4xhqGePqoGBS3
1FiHivtx2LJxCM+OnfFNLRqYgST66DcccMiigN29uj/EUHrajTDfvUemVeo+Y569
JeU30H2b6TZgfyDy33T2yS1yPKLGtuc=
-----END CERTIFICATE-----
